Certificate:
    Data:
        Version: 3 (0x2)
        Serial Number: 256 (0x100)
    Signature Algorithm: sha1WithRSAEncryption
        Issuer: C=US, ST=CA, O=sudomesh, CN=nodeconf.local
        Validity
            Not Before: Oct 18 06:15:53 2013 GMT
            Not After : Oct 16 06:15:53 2023 GMT
        Subject: C=US, ST=CA, O=sudomesh, CN=nodeconf.local
        Subject Public Key Info:
            Public Key Algorithm: rsaEncryption
                Public-Key: (4096 bit)
                Modulus:
                    00:ae:64:3a:8f:c6:02:1a:6e:84:74:3d:55:42:a0:
                    ef:ac:18:ce:16:cb:2b:fe:ca:02:3f:1f:f4:63:6a:
                    03:4c:ae:b5:1e:dc:c7:47:d2:63:0c:26:ae:00:0d:
                    78:0c:70:f7:44:75:66:81:f4:12:12:1a:b7:53:ad:
                    00:01:46:9a:67:ef:27:e6:39:c6:30:de:fa:e1:2b:
                    05:91:84:36:dd:cd:3c:0c:b8:c0:99:57:85:cd:12:
                    6f:b0:4c:fa:4a:df:50:fc:76:df:ec:c1:ba:02:bb:
                    28:8d:65:af:eb:a9:e3:bf:31:68:2b:5c:ee:73:fe:
                    3c:eb:53:c4:c6:2e:f7:b0:3c:87:5b:9e:af:b7:e0:
                    e7:84:fd:99:9a:37:90:ec:7f:79:3a:c6:17:08:c9:
                    03:e8:1e:8e:1c:74:e2:d6:01:5e:77:79:70:26:57:
                    81:35:7a:8f:1c:01:1c:6d:49:7c:47:d6:80:a5:4b:
                    f6:5c:c3:31:ff:3f:a6:78:bf:fc:9d:a8:1f:4c:10:
                    ed:bf:10:de:90:25:ee:6d:10:81:db:72:0f:20:09:
                    e8:e6:0c:a1:e7:7f:17:91:dd:3b:fb:93:1f:ce:ce:
                    e9:19:d9:30:1b:e2:2a:04:7e:62:64:37:4c:78:78:
                    70:a5:11:87:67:50:94:94:12:fd:84:7e:4e:ca:68:
                    dc:a7:fa:16:ea:d1:37:e3:39:ad:82:ff:84:02:a2:
                    8d:c0:15:34:8e:72:c0:2f:15:87:41:35:7b:cb:4e:
                    8b:38:a6:20:05:ea:70:93:99:97:04:ad:55:7f:42:
                    05:15:7e:27:4f:1e:cf:ad:59:53:c5:67:c3:29:f8:
                    26:23:d6:b0:0f:35:56:2e:b3:0b:6b:c1:cf:c9:d8:
                    c6:9b:e6:7d:e3:65:c9:a6:28:b4:bb:bb:6c:ca:22:
                    53:8c:53:ea:90:ed:f7:8a:38:fe:2b:00:9f:b0:b7:
                    4e:58:e3:f6:72:9e:e8:e9:9a:0d:1e:9f:9d:d0:b2:
                    7e:6c:c3:bb:d9:3c:69:7f:f0:31:b0:68:66:c3:07:
                    0c:4d:8f:5b:45:cc:a4:72:ee:50:0d:ea:10:b9:27:
                    bc:28:97:89:a6:eb:f9:75:8c:9a:f2:7c:a5:a4:52:
                    81:73:c7:ec:4e:47:f5:3e:10:7f:db:c6:b1:5a:88:
                    bb:e5:13:22:b3:c1:b3:fa:5b:cb:a1:04:36:33:b5:
                    ce:37:74:3f:07:a3:b2:95:6b:bf:20:e3:2a:5f:bd:
                    08:60:cc:62:42:99:4a:27:23:b5:06:84:db:f5:70:
                    f2:bf:18:71:43:bb:9f:07:c3:2c:95:92:93:f4:97:
                    b8:f5:00:ef:f2:b5:28:ae:9b:78:71:a7:03:8d:f1:
                    8b:31:91
                Exponent: 65537 (0x10001)
        X509v3 extensions:
            X509v3 Subject Key Identifier: 
                54:3A:1C:61:8C:42:F0:1E:4E:C0:44:8A:E4:D2:86:7E:D3:B4:60:EB
            X509v3 Authority Key Identifier: 
                keyid:31:5B:39:B1:56:2B:0E:12:96:F0:54:53:78:31:59:8B:77:C2:FF:48

            X509v3 Basic Constraints: 
                CA:TRUE
    Signature Algorithm: sha1WithRSAEncryption
         02:0b:f6:22:97:21:6d:1d:9b:04:a8:a3:98:98:da:37:19:6d:
         f6:13:f2:fb:d5:d2:ec:59:e4:0c:46:02:8e:d1:93:1e:8b:3d:
         f8:93:61:19:ed:1f:48:00:ed:9e:35:ce:91:28:88:92:d7:fc:
         a0:d3:2b:65:b1:2e:b2:b6:07:3d:5b:50:bb:a7:6b:8b:df:e7:
         f3:39:74:a6:33:16:dc:86:1f:91:fe:90:fb:da:a7:ce:96:2e:
         57:7f:da:df:19:04:03:e1:8a:82:6e:71:31:d1:6f:52:47:f0:
         53:22:1f:65:b7:35:74:41:9f:04:f9:83:b3:9b:c3:c0:75:e2:
         3b:2f:70:11:6c:2b:fb:09:02:07:aa:c7:da:80:75:0a:a5:27:
         da:b3:10:03:bf:9d:74:0a:33:37:a9:d3:0c:76:3c:e2:00:01:
         4e:97:85:c3:8c:ac:35:fb:02:75:c0:21:3e:e2:47:95:07:fc:
         b2:0d:0a:0a:97:22:d3:1d:33:92:a5:1b:9d:5e:77:44:fa:6b:
         83:90:38:8e:e6:06:8f:f5:e0:09:9e:48:81:83:c6:0e:4b:09:
         23:a8:9c:f8:b8:ef:7f:01:76:fd:da:49:33:66:25:48:d8:7a:
         0a:b1:01:4b:31:3c:75:6b:36:5b:3b:66:f0:cc:1b:a8:ed:f1:
         4e:2f:49:2d:3e:c5:8d:4f:75:a1:69:51:d1:d3:0b:13:9e:0d:
         7d:0f:d3:df:43:4c:d2:69:50:70:ab:ef:73:e6:2b:d0:78:d8:
         d0:22:06:3f:d9:11:65:e9:a9:c2:9f:c6:26:96:06:0f:b4:40:
         4d:d4:c6:b7:76:73:1a:1e:aa:14:dc:b7:69:8c:66:84:cc:f0:
         1b:f0:ee:bd:94:72:f9:ae:fc:9f:8f:6e:53:b5:40:5c:b0:83:
         07:89:66:ad:c5:d3:26:73:d4:6a:7b:4a:6a:c9:b9:64:1b:3e:
         0b:f0:40:f4:5d:7d:ac:d7:02:b5:97:ca:a9:6f:a0:19:60:5c:
         b2:bd:97:ec:6b:23:10:23:37:5b:1c:d6:ce:31:60:2b:94:db:
         57:35:f8:09:01:45:69:a6:a3:06:22:96:8f:93:1f:37:eb:ae:
         6a:2c:52:77:f0:f5:58:2c:7e:29:61:70:a9:00:bb:ac:60:8b:
         d0:5a:36:36:31:2a:9f:25:6f:7e:92:18:45:bd:ba:4f:50:e9:
         71:b0:21:d3:46:e1:fa:30:dd:68:12:6f:1a:1f:b5:91:6f:ec:
         ec:b0:79:be:4f:20:5a:10:fe:42:a8:98:a9:38:ca:4f:36:35:
         26:f8:94:2f:ce:ee:f5:03:93:0f:13:64:f0:96:b3:13:14:05:
         3c:21:52:ea:06:32:f3:e4
-----BEGIN CERTIFICATE-----
MIIFWDCCA0CgAwIBAgICAQAwDQYJKoZIhvcNAQEFBQAwRjELMAkGA1UEBhMCVVMx
CzAJBgNVBAgMAkNBMREwDwYDVQQKDAhzdWRvbWVzaDEXMBUGA1UEAwwObm9kZWNv
bmYubG9jYWwwHhcNMTMxMDE4MDYxNTUzWhcNMjMxMDE2MDYxNTUzWjBGMQswCQYD
VQQGEwJVUzELMAkGA1UECAwCQ0ExETAPBgNVBAoMCHN1ZG9tZXNoMRcwFQYDVQQD
DA5ub2RlY29uZi5sb2NhbDCCAiIwDQYJKoZIhvcNAQEBBQADggIPADCCAgoCggIB
AK5kOo/GAhpuhHQ9VUKg76wYzhbLK/7KAj8f9GNqA0yutR7cx0fSYwwmrgANeAxw
90R1ZoH0EhIat1OtAAFGmmfvJ+Y5xjDe+uErBZGENt3NPAy4wJlXhc0Sb7BM+krf
UPx23+zBugK7KI1lr+up478xaCtc7nP+POtTxMYu97A8h1uer7fg54T9mZo3kOx/
eTrGFwjJA+gejhx04tYBXnd5cCZXgTV6jxwBHG1JfEfWgKVL9lzDMf8/pni//J2o
H0wQ7b8Q3pAl7m0QgdtyDyAJ6OYMoed/F5HdO/uTH87O6RnZMBviKgR+YmQ3THh4
cKURh2dQlJQS/YR+Tspo3Kf6FurRN+M5rYL/hAKijcAVNI5ywC8Vh0E1e8tOizim
IAXqcJOZlwStVX9CBRV+J08ez61ZU8Vnwyn4JiPWsA81Vi6zC2vBz8nYxpvmfeNl
yaYotLu7bMoiU4xT6pDt94o4/isAn7C3Tljj9nKe6OmaDR6fndCyfmzDu9k8aX/w
MbBoZsMHDE2PW0XMpHLuUA3qELknvCiXiabr+XWMmvJ8paRSgXPH7E5H9T4Qf9vG
sVqIu+UTIrPBs/pby6EENjO1zjd0PwejspVrvyDjKl+9CGDMYkKZSicjtQaE2/Vw
8r8YcUO7nwfDLJWSk/SXuPUA7/K1KK6beHGnA43xizGRAgMBAAGjUDBOMB0GA1Ud
DgQWBBRUOhxhjELwHk7ARIrk0oZ+07Rg6zAfBgNVHSMEGDAWgBQxWzmxVisOEpbw
VFN4MVmLd8L/SDAMBgNVHRMEBTADAQH/MA0GCSqGSIb3DQEBBQUAA4ICAQACC/Yi
lyFtHZsEqKOYmNo3GW32E/L71dLsWeQMRgKO0ZMeiz34k2EZ7R9IAO2eNc6RKIiS
1/yg0ytlsS6ytgc9W1C7p2uL3+fzOXSmMxbchh+R/pD72qfOli5Xf9rfGQQD4YqC
bnEx0W9SR/BTIh9ltzV0QZ8E+YOzm8PAdeI7L3ARbCv7CQIHqsfagHUKpSfasxAD
v510CjM3qdMMdjziAAFOl4XDjKw1+wJ1wCE+4keVB/yyDQoKlyLTHTOSpRudXndE
+muDkDiO5gaP9eAJnkiBg8YOSwkjqJz4uO9/AXb92kkzZiVI2HoKsQFLMTx1azZb
O2bwzBuo7fFOL0ktPsWNT3WhaVHR0wsTng19D9PfQ0zSaVBwq+9z5ivQeNjQIgY/
2RFl6anCn8YmlgYPtEBN1Ma3dnMaHqoU3LdpjGaEzPAb8O69lHL5rvyfj25TtUBc
sIMHiWatxdMmc9Rqe0pqyblkGz4L8ED0XX2s1wK1l8qpb6AZYFyyvZfsayMQIzdb
HNbOMWArlNtXNfgJAUVppqMGIpaPkx83665qLFJ38PVYLH4pYXCpALusYIvQWjY2
MSqfJW9+khhFvbpPUOlxsCHTRuH6MN1oEm8aH7WRb+zssHm+TyBaEP5CqJipOMpP
NjUm+JQvzu71A5MPE2TwlrMTFAU8IVLqBjLz5A==
-----END CERTIFICATE-----
