Certificate:
    Data:
        Version: 3 (0x2)
        Serial Number: 257 (0x101)
    Signature Algorithm: sha1WithRSAEncryption
        Issuer: C=US, ST=CA, O=sudomesh, CN=nodeconf.local
        Validity
            Not Before: Oct 18 06:15:54 2013 GMT
            Not After : Oct 18 06:15:54 2015 GMT
        Subject: C=US, ST=CA, O=sudomesh, CN=nodeconf.local
        Subject Public Key Info:
            Public Key Algorithm: rsaEncryption
                Public-Key: (4096 bit)
                Modulus:
                    00:c7:53:e1:76:f3:93:f5:04:e0:07:93:0a:c0:9a:
                    05:5d:02:ec:46:c1:54:a1:5d:47:bb:fd:59:42:1e:
                    ec:1a:eb:58:d1:0b:45:cb:ad:cd:de:aa:bc:17:56:
                    f7:4f:34:89:30:95:c0:55:d9:34:d0:a4:e8:b6:9d:
                    f2:9f:c4:fb:cd:a8:17:5a:1c:21:7d:03:6b:d2:98:
                    e1:f1:51:25:34:b3:09:63:10:98:30:a8:e5:da:98:
                    5d:f8:06:e1:5c:64:63:22:49:62:b5:81:20:25:fd:
                    85:2b:d9:03:4d:91:51:1c:31:d1:25:3d:5a:1b:29:
                    17:90:43:cb:86:58:e1:a9:87:1f:47:49:a1:3f:e1:
                    ad:ae:f4:f2:3a:20:d7:b3:e3:66:bf:6a:b5:dd:5e:
                    7c:d6:6c:9e:80:36:d2:31:05:2c:1f:ea:40:28:19:
                    92:7f:db:62:25:7c:d6:e4:29:c9:1e:ec:8d:bb:b6:
                    b1:df:58:c1:5b:53:d8:f0:bc:69:d6:d0:dc:ae:67:
                    bc:06:c3:88:ae:66:d3:d6:1e:c3:5e:98:8c:e9:e3:
                    0b:74:93:30:60:7d:85:81:3e:13:c9:dc:ba:b5:0f:
                    53:b1:de:bd:8f:ed:f4:a6:4f:8e:a5:32:04:9a:cd:
                    2b:d7:76:c8:27:4b:bc:d9:24:87:d7:88:1b:20:58:
                    68:bf:3d:95:73:25:6c:11:27:2d:2d:e2:92:ef:4e:
                    74:40:19:9b:17:fd:da:fe:87:98:7c:2f:d6:11:5b:
                    05:68:22:ce:c3:cf:e2:3b:99:b4:93:4e:1f:d6:40:
                    cc:e8:95:95:45:34:80:cc:ab:e7:41:2f:aa:2d:83:
                    b3:8d:40:ee:f3:13:ba:b7:e8:7d:f4:c0:67:0a:61:
                    f9:db:61:0e:4c:6b:57:4f:8b:35:f3:1a:bb:bc:a0:
                    2e:24:62:03:84:c3:26:bd:f0:a7:cb:d5:79:dc:85:
                    df:bf:f9:49:77:14:53:fe:64:17:50:d0:12:b7:ec:
                    54:e0:d3:4c:b0:68:19:7d:00:1e:71:6e:55:57:78:
                    15:d8:da:50:0a:d6:22:a6:40:34:49:4a:78:b6:b1:
                    ed:27:c2:5d:1f:10:9a:93:93:40:8a:a7:9b:e8:bf:
                    d2:c4:0b:fb:08:98:a0:5e:f3:0c:b0:06:4e:53:6b:
                    00:e5:a1:20:9d:5c:2a:37:16:64:1c:21:98:56:58:
                    65:c6:19:88:47:fe:b9:ac:1c:4f:12:88:7f:0c:38:
                    4d:0f:be:71:81:2d:03:c9:f9:d8:6d:2f:b6:9b:4d:
                    ac:c6:8d:c2:0f:ae:34:f4:7b:c9:a1:09:62:fb:27:
                    a4:bc:e2:02:5f:2a:7c:b1:10:9e:8a:30:c6:48:2d:
                    70:5d:51
                Exponent: 65537 (0x10001)
        X509v3 extensions:
            X509v3 Basic Constraints: 
                CA:FALSE
            Netscape Comment: 
                OpenSSL Generated Certificate
            X509v3 Subject Key Identifier: 
                5A:A1:D9:FD:E7:79:1F:07:07:6E:33:87:FD:A3:56:17:35:CC:BE:87
            X509v3 Authority Key Identifier: 
                keyid:54:3A:1C:61:8C:42:F0:1E:4E:C0:44:8A:E4:D2:86:7E:D3:B4:60:EB

    Signature Algorithm: sha1WithRSAEncryption
         ac:26:08:5f:e4:f2:25:51:ee:ef:dc:24:8b:ff:60:54:84:8f:
         16:64:29:7d:94:a1:98:5e:fc:6b:44:c4:06:b8:42:a8:9a:83:
         24:d3:e9:2f:b6:49:3d:f9:f9:20:37:7a:b5:8c:48:2c:55:a6:
         e1:ff:50:90:19:9f:af:a6:2f:61:02:26:60:62:ae:a6:81:bf:
         70:0e:cc:e6:e8:3a:58:98:5e:ca:a9:b5:39:63:4a:58:16:2a:
         71:93:e7:53:63:0e:d9:19:44:57:df:90:4c:f9:ab:44:57:a6:
         3a:1e:94:ca:c7:15:e5:0b:1e:bd:61:51:0b:80:6d:00:ff:bf:
         9c:bc:f5:e6:75:03:06:08:1f:44:0f:b4:1f:16:95:b7:b9:30:
         4b:32:0d:2a:66:3d:56:63:0f:ba:39:37:fa:cd:2e:8b:a1:2c:
         8a:6c:16:7b:93:54:d3:9d:75:be:95:fc:e6:6a:04:40:10:cc:
         b6:6e:c3:68:47:c4:17:5c:d8:62:fb:35:9d:8d:48:c3:82:c3:
         df:e7:9f:e7:0e:99:84:09:04:df:7e:24:78:fb:e6:3e:3e:5c:
         59:3b:82:48:d3:9a:b0:8f:bd:0c:b7:d2:31:04:ec:7f:69:59:
         a2:e0:c3:36:ac:38:9a:f9:9a:32:04:94:98:f8:51:ca:06:ff:
         b9:3c:f4:01:48:19:e3:c6:80:06:67:72:b7:4e:3f:f5:0b:b1:
         55:76:63:f7:59:7d:6a:fa:2d:d7:bb:fd:fe:85:49:23:6c:0b:
         62:62:44:85:99:82:59:82:c1:5b:9f:af:0a:e5:7d:4c:f7:90:
         93:1c:74:c4:c7:12:d6:ff:a3:b6:14:fa:b0:f2:4a:e4:0a:2e:
         4d:42:8c:43:6b:a5:2c:4b:e5:d0:b3:0c:96:9a:ae:54:c2:b0:
         ef:da:bb:c2:2b:e0:05:1c:fb:92:20:e4:22:2f:b3:23:20:f6:
         eb:3d:56:3d:46:73:6c:c0:cf:77:c1:a8:48:11:e3:eb:6c:e7:
         5f:85:96:f8:7a:b7:72:cc:b2:53:df:39:44:9b:5c:be:c5:bf:
         48:53:ee:04:13:18:1f:b7:14:6f:61:ae:7c:76:4b:c7:a0:0d:
         63:5c:84:85:04:f1:9e:35:dd:a6:21:4a:a8:63:30:fa:02:9c:
         14:15:3b:b1:ca:3a:04:82:26:24:82:92:e8:da:e2:d3:5a:45:
         41:4b:d2:97:2e:71:76:c0:64:22:6f:50:04:b6:e5:ea:60:83:
         fd:85:f1:e6:ad:11:99:29:74:4b:54:f9:dc:9e:1f:00:3a:c3:
         55:42:86:67:04:ae:8f:73:c3:c4:29:43:8d:09:e4:64:84:97:
         78:b8:8f:a6:8e:df:cb:12
-----BEGIN CERTIFICATE-----
MIIFgzCCA2ugAwIBAgICAQEwDQYJKoZIhvcNAQEFBQAwRjELMAkGA1UEBhMCVVMx
CzAJBgNVBAgMAkNBMREwDwYDVQQKDAhzdWRvbWVzaDEXMBUGA1UEAwwObm9kZWNv
bmYubG9jYWwwHhcNMTMxMDE4MDYxNTU0WhcNMTUxMDE4MDYxNTU0WjBGMQswCQYD
VQQGEwJVUzELMAkGA1UECAwCQ0ExETAPBgNVBAoMCHN1ZG9tZXNoMRcwFQYDVQQD
DA5ub2RlY29uZi5sb2NhbDCCAiIwDQYJKoZIhvcNAQEBBQADggIPADCCAgoCggIB
AMdT4Xbzk/UE4AeTCsCaBV0C7EbBVKFdR7v9WUIe7BrrWNELRcutzd6qvBdW9080
iTCVwFXZNNCk6Lad8p/E+82oF1ocIX0Da9KY4fFRJTSzCWMQmDCo5dqYXfgG4Vxk
YyJJYrWBICX9hSvZA02RURwx0SU9WhspF5BDy4ZY4amHH0dJoT/hra708jog17Pj
Zr9qtd1efNZsnoA20jEFLB/qQCgZkn/bYiV81uQpyR7sjbu2sd9YwVtT2PC8adbQ
3K5nvAbDiK5m09Yew16YjOnjC3STMGB9hYE+E8ncurUPU7HevY/t9KZPjqUyBJrN
K9d2yCdLvNkkh9eIGyBYaL89lXMlbBEnLS3iku9OdEAZmxf92v6HmHwv1hFbBWgi
zsPP4juZtJNOH9ZAzOiVlUU0gMyr50Evqi2Ds41A7vMTurfoffTAZwph+dthDkxr
V0+LNfMau7ygLiRiA4TDJr3wp8vVedyF37/5SXcUU/5kF1DQErfsVODTTLBoGX0A
HnFuVVd4FdjaUArWIqZANElKeLax7SfCXR8QmpOTQIqnm+i/0sQL+wiYoF7zDLAG
TlNrAOWhIJ1cKjcWZBwhmFZYZcYZiEf+uawcTxKIfww4TQ++cYEtA8n52G0vtptN
rMaNwg+uNPR7yaEJYvsnpLziAl8qfLEQnoowxkgtcF1RAgMBAAGjezB5MAkGA1Ud
EwQCMAAwLAYJYIZIAYb4QgENBB8WHU9wZW5TU0wgR2VuZXJhdGVkIENlcnRpZmlj
YXRlMB0GA1UdDgQWBBRaodn953kfBwduM4f9o1YXNcy+hzAfBgNVHSMEGDAWgBRU
OhxhjELwHk7ARIrk0oZ+07Rg6zANBgkqhkiG9w0BAQUFAAOCAgEArCYIX+TyJVHu
79wki/9gVISPFmQpfZShmF78a0TEBrhCqJqDJNPpL7ZJPfn5IDd6tYxILFWm4f9Q
kBmfr6YvYQImYGKupoG/cA7M5ug6WJheyqm1OWNKWBYqcZPnU2MO2RlEV9+QTPmr
RFemOh6UyscV5QsevWFRC4BtAP+/nLz15nUDBggfRA+0HxaVt7kwSzINKmY9VmMP
ujk3+s0ui6EsimwWe5NU0511vpX85moEQBDMtm7DaEfEF1zYYvs1nY1Iw4LD3+ef
5w6ZhAkE334kePvmPj5cWTuCSNOasI+9DLfSMQTsf2lZouDDNqw4mvmaMgSUmPhR
ygb/uTz0AUgZ48aABmdyt04/9QuxVXZj91l9avot17v9/oVJI2wLYmJEhZmCWYLB
W5+vCuV9TPeQkxx0xMcS1v+jthT6sPJK5AouTUKMQ2ulLEvl0LMMlpquVMKw79q7
wivgBRz7kiDkIi+zIyD26z1WPUZzbMDPd8GoSBHj62znX4WW+Hq3csyyU985RJtc
vsW/SFPuBBMYH7cUb2GufHZLx6ANY1yEhQTxnjXdpiFKqGMw+gKcFBU7sco6BIIm
JIKS6Nri01pFQUvSly5xdsBkIm9QBLbl6mCD/YXx5q0RmSl0S1T53J4fADrDVUKG
ZwSuj3PDxClDjQnkZISXeLiPpo7fyxI=
-----END CERTIFICATE-----
